target datalayout = "e-m:e-p270:32:32-p271:32:32-p272:64:64-i64:64-i128:128-f80:128-n8:16:32:64-S128"
target triple = "x86_64-pc-linux-gnu"

%"struct.Yosys::RTLIL::Const" = type { i16, i8, %union.anon }
%union.anon = type { %"class.std::__cxx11::basic_string" }
%"class.std::__cxx11::basic_string" = type { %"struct.std::__cxx11::basic_string<char>::_Alloc_hider", i64, %union.anon.3 }
%"struct.std::__cxx11::basic_string<char>::_Alloc_hider" = type { ptr }
%union.anon.3 = type { i64, [8 x i8] }
%class.BigInteger = type { i32, %class.BigUnsigned }
%class.BigUnsigned = type { %class.NumberlikeArray }
%class.NumberlikeArray = type { i32, i32, ptr }

; Function Attrs: mustprogress nounwind uwtable
define linkonce_odr void @_ZN15NumberlikeArrayImEC2Ev(ptr noundef nonnull align 8 dereferenceable(16) %0) unnamed_addr #6 comdat align 2 {
  %2 = alloca ptr, align 8
  store ptr %0, ptr %2, align 8, !tbaa !101
  %3 = load ptr, ptr %2, align 8
  %4 = getelementptr inbounds nuw %class.NumberlikeArray, ptr %3, i32 0, i32 0
  store i32 0, ptr %4, align 8, !tbaa !104
  %5 = getelementptr inbounds nuw %class.NumberlikeArray, ptr %3, i32 0, i32 1
  store i32 0, ptr %5, align 4, !tbaa !105
  %6 = getelementptr inbounds nuw %class.NumberlikeArray, ptr %3, i32 0, i32 2
  store ptr null, ptr %6, align 8, !tbaa !103
  ret void
}

; Function Attrs: mustprogress uwtable
define linkonce_odr void @_ZN11BigUnsignedC2Ev(ptr noundef nonnull align 8 dereferenceable(16) %0) unnamed_addr #4 comdat align 2 {
  %2 = alloca ptr, align 8
  store ptr %0, ptr %2, align 8, !tbaa !99
  %3 = load ptr, ptr %2, align 8
  call void @_ZN15NumberlikeArrayImEC2Ev(ptr noundef nonnull align 8 dereferenceable(16) %3)
  ret void
}

; Function Attrs: mustprogress nounwind uwtable
define linkonce_odr void @_ZN15NumberlikeArrayImED2Ev(ptr noundef nonnull align 8 dereferenceable(16) %0) unnamed_addr #6 comdat align 2 {
  %2 = alloca ptr, align 8
  store ptr %0, ptr %2, align 8, !tbaa !101
  %3 = load ptr, ptr %2, align 8
  %4 = getelementptr inbounds nuw %class.NumberlikeArray, ptr %3, i32 0, i32 2
  %5 = load ptr, ptr %4, align 8, !tbaa !103
  %6 = icmp eq ptr %5, null
  br i1 %6, label %8, label %7

7:                                                ; preds = %1
  call void @_ZdaPv(ptr noundef %5) #19
  br label %8

8:                                                ; preds = %7, %1
  ret void
}

; Function Attrs: mustprogress uwtable
define linkonce_odr void @_ZN10BigIntegerC2Ev(ptr noundef nonnull align 8 dereferenceable(24) %0) unnamed_addr #4 comdat align 2 {
  %2 = alloca ptr, align 8
  store ptr %0, ptr %2, align 8, !tbaa !38
  %3 = load ptr, ptr %2, align 8
  %4 = getelementptr inbounds nuw %class.BigInteger, ptr %3, i32 0, i32 0
  store i32 0, ptr %4, align 8, !tbaa !40
  %5 = getelementptr inbounds nuw %class.BigInteger, ptr %3, i32 0, i32 1
  call void @_ZN11BigUnsignedC2Ev(ptr noundef nonnull align 8 dereferenceable(16) %5)
  ret void
}

; Function Attrs: inlinehint mustprogress nounwind uwtable
define linkonce_odr noundef nonnull align 4 dereferenceable(4) ptr @_ZSt3maxIiERKT_S2_S2_(ptr noundef nonnull align 4 dereferenceable(4) %0, ptr noundef nonnull align 4 dereferenceable(4) %1) #7 comdat {
  %3 = alloca ptr, align 8
  %4 = alloca ptr, align 8
  %5 = alloca ptr, align 8
  store ptr %0, ptr %4, align 8, !tbaa !33
  store ptr %1, ptr %5, align 8, !tbaa !33
  %6 = load ptr, ptr %4, align 8, !tbaa !33
  %7 = load i32, ptr %6, align 4, !tbaa !13
  %8 = load ptr, ptr %5, align 8, !tbaa !33
  %9 = load i32, ptr %8, align 4, !tbaa !13
  %10 = icmp slt i32 %7, %9
  br i1 %10, label %11, label %13

11:                                               ; preds = %2
  %12 = load ptr, ptr %5, align 8, !tbaa !33
  store ptr %12, ptr %3, align 8
  br label %15

13:                                               ; preds = %2
  %14 = load ptr, ptr %4, align 8, !tbaa !33
  store ptr %14, ptr %3, align 8
  br label %15

15:                                               ; preds = %13, %11
  %16 = load ptr, ptr %3, align 8
  ret ptr %16
}

; Function Attrs: mustprogress uwtable
define linkonce_odr noundef i32 @_ZN5Yosys7GetSizeINS_5RTLIL5ConstEEEiRKT_(ptr noundef nonnull align 8 dereferenceable(40) %0) #4 comdat {
  %2 = alloca ptr, align 8
  store ptr %0, ptr %2, align 8, !tbaa !6
  %3 = load ptr, ptr %2, align 8, !tbaa !6
  %4 = call noundef i32 @_ZNK5Yosys5RTLIL5Const4sizeEv(ptr noundef nonnull align 8 dereferenceable(40) %3)
  ret i32 %4
}

; Function Attrs: inlinehint mustprogress nounwind uwtable
define linkonce_odr void @_ZN10BigIntegerD2Ev(ptr noundef nonnull align 8 dereferenceable(24) %0) unnamed_addr #7 comdat align 2 {
  %2 = alloca ptr, align 8
  store ptr %0, ptr %2, align 8, !tbaa !38
  %3 = load ptr, ptr %2, align 8
  %4 = getelementptr inbounds nuw %class.BigInteger, ptr %3, i32 0, i32 1
  call void @_ZN15NumberlikeArrayImED2Ev(ptr noundef nonnull align 8 dereferenceable(16) %4) #3
  ret void
}

; Function Attrs: inlinehint mustprogress uwtable
define linkonce_odr void @_ZNK10BigIntegermiERKS_(ptr dead_on_unwind noalias writable sret(%class.BigInteger) align 8 %0, ptr noundef nonnull align 8 dereferenceable(24) %1, ptr noundef nonnull align 8 dereferenceable(24) %2) #8 comdat align 2 personality ptr @__gxx_personality_v0 {
  %4 = alloca ptr, align 8
  %5 = alloca ptr, align 8
  %6 = alloca ptr, align 8
  %7 = alloca i1, align 1
  %8 = alloca ptr, align 8
  %9 = alloca i32, align 4
  store ptr %0, ptr %4, align 8
  store ptr %1, ptr %5, align 8, !tbaa !38
  store ptr %2, ptr %6, align 8, !tbaa !38
  %10 = load ptr, ptr %5, align 8
  store i1 false, ptr %7, align 1
  call void @_ZN10BigIntegerC2Ev(ptr noundef nonnull align 8 dereferenceable(24) %0)
  %11 = load ptr, ptr %6, align 8, !tbaa !38
  invoke void @_ZN10BigInteger8subtractERKS_S1_(ptr noundef nonnull align 8 dereferenceable(24) %0, ptr noundef nonnull align 8 dereferenceable(24) %10, ptr noundef nonnull align 8 dereferenceable(24) %11)
          to label %12 unwind label %14

12:                                               ; preds = %3
  store i1 true, ptr %7, align 1
  %13 = load i1, ptr %7, align 1
  br i1 %13, label %19, label %18

14:                                               ; preds = %3
  %15 = landingpad { ptr, i32 }
          cleanup
  %16 = extractvalue { ptr, i32 } %15, 0
  store ptr %16, ptr %8, align 8
  %17 = extractvalue { ptr, i32 } %15, 1
  store i32 %17, ptr %9, align 4
  call void @_ZN10BigIntegerD2Ev(ptr noundef nonnull align 8 dereferenceable(24) %0) #3
  br label %20

18:                                               ; preds = %12
  call void @_ZN10BigIntegerD2Ev(ptr noundef nonnull align 8 dereferenceable(24) %0) #3
  br label %19

19:                                               ; preds = %18, %12
  ret void

20:                                               ; preds = %14
  %21 = load ptr, ptr %8, align 8
  %22 = load i32, ptr %9, align 4
  %23 = insertvalue { ptr, i32 } poison, ptr %21, 0
  %24 = insertvalue { ptr, i32 } %23, i32 %22, 1
  resume { ptr, i32 } %24
}

; Function Attrs: mustprogress uwtable
define void @_ZN5Yosys5RTLIL9const_subERKNS0_5ConstES3_bbi(ptr dead_on_unwind noalias writable sret(%"struct.Yosys::RTLIL::Const") align 8 %0, ptr noundef nonnull align 8 dereferenceable(40) %1, ptr noundef nonnull align 8 dereferenceable(40) %2, i1 noundef zeroext %3, i1 noundef zeroext %4, i32 noundef %5) #4 personality ptr @__gxx_personality_v0 {
  %7 = alloca ptr, align 8
  %8 = alloca ptr, align 8
  %9 = alloca ptr, align 8
  %10 = alloca i8, align 1
  %11 = alloca i8, align 1
  %12 = alloca i32, align 4
  %13 = alloca i32, align 4
  %14 = alloca %class.BigInteger, align 8
  %15 = alloca %class.BigInteger, align 8
  %16 = alloca %class.BigInteger, align 8
  %17 = alloca ptr, align 8
  %18 = alloca i32, align 4
  %19 = alloca i32, align 4
  %20 = alloca i32, align 4
  store ptr %0, ptr %7, align 8
  store ptr %1, ptr %8, align 8, !tbaa !6
  store ptr %2, ptr %9, align 8, !tbaa !6
  %21 = zext i1 %3 to i8
  store i8 %21, ptr %10, align 1, !tbaa !11
  %22 = zext i1 %4 to i8
  store i8 %22, ptr %11, align 1, !tbaa !11
  store i32 %5, ptr %12, align 4, !tbaa !13
  call void @llvm.lifetime.start.p0(i64 4, ptr %13) #3
  store i32 -1, ptr %13, align 4, !tbaa !13
  call void @llvm.lifetime.start.p0(i64 24, ptr %14) #3
  call void @llvm.lifetime.start.p0(i64 24, ptr %15) #3
  %23 = load ptr, ptr %8, align 8, !tbaa !6
  %24 = load i8, ptr %10, align 1, !tbaa !11, !range !15, !noundef !16
  %25 = trunc i8 %24 to i1
  call void @_ZN5YosysL9const2bigERKNS_5RTLIL5ConstEbRi(ptr dead_on_unwind writable sret(%class.BigInteger) align 8 %15, ptr noundef nonnull align 8 dereferenceable(40) %23, i1 noundef zeroext %25, ptr noundef nonnull align 4 dereferenceable(4) %13)
  call void @llvm.lifetime.start.p0(i64 24, ptr %16) #3
  %26 = load ptr, ptr %9, align 8, !tbaa !6
  %27 = load i8, ptr %11, align 1, !tbaa !11, !range !15, !noundef !16
  %28 = trunc i8 %27 to i1
  invoke void @_ZN5YosysL9const2bigERKNS_5RTLIL5ConstEbRi(ptr dead_on_unwind writable sret(%class.BigInteger) align 8 %16, ptr noundef nonnull align 8 dereferenceable(40) %26, i1 noundef zeroext %28, ptr noundef nonnull align 4 dereferenceable(4) %13)
          to label %29 unwind label %49

29:                                               ; preds = %6
  invoke void @_ZNK10BigIntegermiERKS_(ptr dead_on_unwind writable sret(%class.BigInteger) align 8 %14, ptr noundef nonnull align 8 dereferenceable(24) %15, ptr noundef nonnull align 8 dereferenceable(24) %16)
          to label %30 unwind label %53

30:                                               ; preds = %29
  call void @_ZN10BigIntegerD2Ev(ptr noundef nonnull align 8 dereferenceable(24) %16) #3
  call void @llvm.lifetime.end.p0(i64 24, ptr %16) #3
  call void @_ZN10BigIntegerD2Ev(ptr noundef nonnull align 8 dereferenceable(24) %15) #3
  call void @llvm.lifetime.end.p0(i64 24, ptr %15) #3
  %31 = load i32, ptr %12, align 4, !tbaa !13
  %32 = icmp sge i32 %31, 0
  call void @llvm.lifetime.start.p0(i64 4, ptr %19) #3
  call void @llvm.lifetime.start.p0(i64 4, ptr %20) #3
  br i1 %32, label %33, label %35

33:                                               ; preds = %30
  %34 = load i32, ptr %12, align 4, !tbaa !13
  br label %45

35:                                               ; preds = %30
  %36 = load ptr, ptr %8, align 8, !tbaa !6
  %37 = invoke noundef i32 @_ZN5Yosys7GetSizeINS_5RTLIL5ConstEEEiRKT_(ptr noundef nonnull align 8 dereferenceable(40) %36)
          to label %38 unwind label %58

38:                                               ; preds = %35
  store i32 %37, ptr %19, align 4, !tbaa !13
  %39 = load ptr, ptr %9, align 8, !tbaa !6
  %40 = invoke noundef i32 @_ZN5Yosys7GetSizeINS_5RTLIL5ConstEEEiRKT_(ptr noundef nonnull align 8 dereferenceable(40) %39)
          to label %41 unwind label %62

41:                                               ; preds = %38
  store i32 %40, ptr %20, align 4, !tbaa !13
  %42 = invoke noundef nonnull align 4 dereferenceable(4) ptr @_ZSt3maxIiERKT_S2_S2_(ptr noundef nonnull align 4 dereferenceable(4) %19, ptr noundef nonnull align 4 dereferenceable(4) %20)
          to label %43 unwind label %62

43:                                               ; preds = %41
  %44 = load i32, ptr %42, align 4, !tbaa !13
  br label %45

45:                                               ; preds = %43, %33
  %46 = phi i32 [ %34, %33 ], [ %44, %43 ]
  %47 = load i32, ptr %13, align 4, !tbaa !13
  invoke void @_ZN5YosysL9big2constERK10BigIntegerii(ptr dead_on_unwind writable sret(%"struct.Yosys::RTLIL::Const") align 8 %0, ptr noundef nonnull align 8 dereferenceable(24) %14, i32 noundef %46, i32 noundef %47)
          to label %48 unwind label %62

48:                                               ; preds = %45
  call void @llvm.lifetime.end.p0(i64 4, ptr %20) #3
  call void @llvm.lifetime.end.p0(i64 4, ptr %19) #3
  call void @_ZN10BigIntegerD2Ev(ptr noundef nonnull align 8 dereferenceable(24) %14) #3
  call void @llvm.lifetime.end.p0(i64 24, ptr %14) #3
  call void @llvm.lifetime.end.p0(i64 4, ptr %13) #3
  ret void

49:                                               ; preds = %6
  %50 = landingpad { ptr, i32 }
          cleanup
  %51 = extractvalue { ptr, i32 } %50, 0
  store ptr %51, ptr %17, align 8
  %52 = extractvalue { ptr, i32 } %50, 1
  store i32 %52, ptr %18, align 4
  br label %57

53:                                               ; preds = %29
  %54 = landingpad { ptr, i32 }
          cleanup
  %55 = extractvalue { ptr, i32 } %54, 0
  store ptr %55, ptr %17, align 8
  %56 = extractvalue { ptr, i32 } %54, 1
  store i32 %56, ptr %18, align 4
  call void @_ZN10BigIntegerD2Ev(ptr noundef nonnull align 8 dereferenceable(24) %16) #3
  br label %57

57:                                               ; preds = %53, %49
  call void @llvm.lifetime.end.p0(i64 24, ptr %16) #3
  call void @_ZN10BigIntegerD2Ev(ptr noundef nonnull align 8 dereferenceable(24) %15) #3
  call void @llvm.lifetime.end.p0(i64 24, ptr %15) #3
  br label %67

58:                                               ; preds = %35
  %59 = landingpad { ptr, i32 }
          cleanup
  %60 = extractvalue { ptr, i32 } %59, 0
  store ptr %60, ptr %17, align 8
  %61 = extractvalue { ptr, i32 } %59, 1
  store i32 %61, ptr %18, align 4
  br label %66

62:                                               ; preds = %45, %41, %38
  %63 = landingpad { ptr, i32 }
          cleanup
  %64 = extractvalue { ptr, i32 } %63, 0
  store ptr %64, ptr %17, align 8
  %65 = extractvalue { ptr, i32 } %63, 1
  store i32 %65, ptr %18, align 4
  call void @llvm.lifetime.end.p0(i64 4, ptr %20) #3
  br label %66

66:                                               ; preds = %62, %58
  call void @llvm.lifetime.end.p0(i64 4, ptr %19) #3
  call void @_ZN10BigIntegerD2Ev(ptr noundef nonnull align 8 dereferenceable(24) %14) #3
  br label %67

67:                                               ; preds = %66, %57
  call void @llvm.lifetime.end.p0(i64 24, ptr %14) #3
  call void @llvm.lifetime.end.p0(i64 4, ptr %13) #3
  br label %68

68:                                               ; preds = %67
  %69 = load ptr, ptr %17, align 8
  %70 = load i32, ptr %18, align 4
  %71 = insertvalue { ptr, i32 } poison, ptr %69, 0
  %72 = insertvalue { ptr, i32 } %71, i32 %70, 1
  resume { ptr, i32 } %72
}